target datalayout = "e-m:e-p270:32:32-p271:32:32-p272:64:64-i64:64-i128:128-f80:128-n8:16:32:64-S128"
target triple = "x86_64-pc-linux-gnu"

%struct.object_id = type { [32 x i8], i32 }
%struct.object = type { i32, %struct.object_id }

@the_repository = external global ptr, align 8

; Function Attrs: nounwind uwtable
define internal void @show_object__ma_allow_any(ptr noundef %0, ptr noundef %1, ptr noundef %2) #0 {
  %4 = alloca ptr, align 8
  %5 = alloca ptr, align 8
  %6 = alloca ptr, align 8
  store ptr %0, ptr %4, align 8, !tbaa !171
  store ptr %1, ptr %5, align 8, !tbaa !24
  store ptr %2, ptr %6, align 8, !tbaa !134
  %7 = load ptr, ptr @the_repository, align 8, !tbaa !11
  %8 = load ptr, ptr %4, align 8, !tbaa !171
  %9 = getelementptr inbounds nuw %struct.object, ptr %8, i32 0, i32 1
  %10 = call i32 @has_object(ptr noundef %7, ptr noundef %9, i32 noundef 0)
  %11 = icmp ne i32 %10, 0
  br i1 %11, label %13, label %12

12:                                               ; preds = %3
  br label %17

13:                                               ; preds = %3
  %14 = load ptr, ptr %4, align 8, !tbaa !171
  %15 = load ptr, ptr %5, align 8, !tbaa !24
  %16 = load ptr, ptr %6, align 8, !tbaa !134
  call void @show_object(ptr noundef %14, ptr noundef %15, ptr noundef %16)
  br label %17

17:                                               ; preds = %13, %12
  ret void
}